; ModuleID = 'source-C-CXX/56/690.c'
source_filename = "source-C-CXX/56/690.c"
target datalayout = "e-m:e-p270:32:32-p271:32:32-p272:64:64-i64:64-f80:128-n8:16:32:64-S128"
target triple = "x86_64-pc-linux-gnu"

@.str = private unnamed_addr constant [3 x i8] c"%d\00", align 1
@.str.1 = private unnamed_addr constant [3 x i8] c"%s\00", align 1

; Function Attrs: nofree nounwind sspstrong uwtable
define dso_local void @main() local_unnamed_addr #0 {
  %1 = alloca i32, align 4
  %2 = alloca [50 x [50 x i8]], align 16
  %3 = bitcast i32* %1 to i8*
  call void @llvm.lifetime.start.p0i8(i64 4, i8* nonnull %3) #5
  %4 = getelementptr inbounds [50 x [50 x i8]], [50 x [50 x i8]]* %2, i64 0, i64 0, i64 0
  call void @llvm.lifetime.start.p0i8(i64 2500, i8* nonnull %4) #5
  %5 = call i32 (i8*, ...) @__isoc99_scanf(i8* getelementptr inbounds ([3 x i8], [3 x i8]* @.str, i64 0, i64 0), i32* nonnull %1)
  %6 = load i32, i32* %1, align 4, !tbaa !5
  %7 = icmp sgt i32 %6, 0
  br i1 %7, label %8, label %30

8:                                                ; preds = %0, %8
  %9 = phi i64 [ %26, %8 ], [ 0, %0 ]
  %10 = getelementptr inbounds [50 x [50 x i8]], [50 x [50 x i8]]* %2, i64 0, i64 %9, i64 0
  %11 = call i32 (i8*, ...) @__isoc99_scanf(i8* getelementptr inbounds ([3 x i8], [3 x i8]* @.str.1, i64 0, i64 0), i8* nonnull %10)
  %12 = call i64 @strlen(i8* noundef nonnull %10) #6
  %13 = shl i64 %12, 32
  %14 = add i64 %13, -4294967296
  %15 = ashr exact i64 %14, 32
  %16 = getelementptr inbounds [50 x [50 x i8]], [50 x [50 x i8]]* %2, i64 0, i64 %9, i64 %15
  %17 = load i8, i8* %16, align 1, !tbaa !9
  %18 = icmp eq i8 %17, 114
  %19 = icmp eq i8 %17, 121
  %20 = or i1 %18, %19
  %21 = select i1 %20, i64 -8589934592, i64 -12884901888
  %22 = add i64 %13, %21
  %23 = ashr exact i64 %22, 32
  %24 = getelementptr inbounds [50 x [50 x i8]], [50 x [50 x i8]]* %2, i64 0, i64 %9, i64 %23
  store i8 0, i8* %24, align 1, !tbaa !9
  %25 = call i32 @puts(i8* nonnull %10)
  %26 = add nuw nsw i64 %9, 1
  %27 = load i32, i32* %1, align 4, !tbaa !5
  %28 = sext i32 %27 to i64
  %29 = icmp slt i64 %26, %28
  br i1 %29, label %8, label %30, !llvm.loop !10

30:                                               ; preds = %8, %0
  call void @llvm.lifetime.end.p0i8(i64 2500, i8* nonnull %4) #5
  call void @llvm.lifetime.end.p0i8(i64 4, i8* nonnull %3) #5
  ret void
}

; Function Attrs: argmemonly mustprogress nofree nosync nounwind willreturn
declare void @llvm.lifetime.start.p0i8(i64 immarg, i8* nocapture) #1

; Function Attrs: nofree nounwind
declare noundef i32 @__isoc99_scanf(i8* nocapture noundef readonly, ...) local_unnamed_addr #2

; Function Attrs: argmemonly mustprogress nofree nounwind readonly willreturn
declare i64 @strlen(i8* nocapture) local_unnamed_addr #3

; Function Attrs: argmemonly mustprogress nofree nosync nounwind willreturn
declare void @llvm.lifetime.end.p0i8(i64 immarg, i8* nocapture) #1

; Function Attrs: nofree nounwind
declare noundef i32 @puts(i8* nocapture noundef readonly) local_unnamed_addr #4


!llvm.module.flags = !{!0, !1, !2, !3}
!llvm.ident = !{!4}

!0 = !{i32 1, !"wchar_size", i32 4}
!1 = !{i32 7, !"PIC Level", i32 2}
!2 = !{i32 7, !"PIE Level", i32 2}
!3 = !{i32 7, !"uwtable", i32 1}
!4 = !{!"clang version 13.0.0"}
!5 = !{!6, !6, i64 0}
!6 = !{!"int", !7, i64 0}
!7 = !{!"omnipotent char", !8, i64 0}
!8 = !{!"Simple C/C++ TBAA"}
!9 = !{!7, !7, i64 0}
!10 = distinct !{!10, !11}
!11 = !{!"llvm.loop.mustprogress"}
